     1                                  ; ==============================================================================
     2                                  ; Name        : gtkfixed.asm
     3                                  ; Author      : Roberto Aguas Guerreiro [agguro]
     4                                  ; Description : Layout management example using a fixed coordinate positioning container
     5                                  ; ABI Status  : Compliant (Stack-aligned, Callee-saved preserved)
     6                                  ; ==============================================================================
     7                                  
     8                                  bits 64
     9                                  
    10                                  [list -]
    19                                  
    20                                  section .data
    21                                       window:
    22 00000000 0000000000000000             .handle:         dq        0
    23 00000008 67746B666978656400           .title:          db        "gtkfixed", 0
    24                                  
    25                                       button1:
    26 00000011 0000000000000000             .handle:         dq        0
    27 00000019 627574746F6E3100             .label:          db        "button1", 0
    28                                  
    29                                       button2:
    30 00000021 0000000000000000             .handle:         dq        0
    31 00000029 627574746F6E3200             .label:          db        "button2", 0
    32                                  
    33                                       button3:
    34 00000031 0000000000000000             .handle:         dq        0
    35 00000039 627574746F6E3300             .label:          db        "button3", 0
    36                                  
    37                                       fixed:
    38 00000041 0000000000000000             .handle:         dq        0
    39                                  
    40                                       signal:
    41 00000049 64657374726F7900             .destroy:        db        "destroy", 0
    42                                  
    43                                  section .text
    44                                       global _start
    45                                  
    46                                  _start:
    47                                       ; 1. Stack Alignment conform System V AMD64 ABI
    48 00000000 488B3C24                     mov        rdi, [rsp]                ; argc
    49 00000004 488D742408                   lea        rsi, [rsp + 8]            ; argv
    50 00000009 4989FC                       mov        r12, rdi
    51 0000000C 4989F5                       mov        r13, rsi
    52                                  
    53 0000000F 4883E4F0                     and        rsp, -16
    54 00000013 4883EC10                     sub        rsp, 16
    55 00000017 488D3C24                     lea        rdi, [rsp]
    56 0000001B 4C8927                       mov        [rdi], r12
    57 0000001E 488D742408                   lea        rsi, [rsp + 8]
    58 00000023 4C892E                       mov        [rsi], r13
    59                                  
    60 00000026 E8(00000000)                 call       gtk_init
    61                                  
    62                                       ; 2. Window Construction
    63 0000002B BF00000000                   mov        rdi, GTK_WINDOW_TOPLEVEL
    64 00000030 E8(00000000)                 call       gtk_window_new
    65 00000035 48890425[00000000]           mov        qword [window.handle], rax
    66                                  
    67 0000003D 488B3C25[00000000]           mov        rdi, qword [window.handle]
    68 00000045 48BE-                        mov        rsi, window.title
    68 00000047 [0800000000000000] 
    69 0000004F E8(00000000)                 call       gtk_window_set_title
    70                                  
    71 00000054 488B3C25[00000000]           mov        rdi, qword [window.handle]
    72 0000005C BE22010000                   mov        rsi, 290
    73 00000061 BAC8000000                   mov        rdx, 200
    74 00000066 E8(00000000)                 call       gtk_window_set_default_size
    75                                  
    76 0000006B 488B3C25[00000000]           mov        rdi, qword [window.handle]
    77 00000073 BE01000000                   mov        rsi, GTK_WIN_POS_CENTER
    78 00000078 E8(00000000)                 call       gtk_window_set_position
    79                                  
    80                                       ; Create Fixed Layout Container
    81 0000007D E8(00000000)                 call       gtk_fixed_new
    82 00000082 48890425[41000000]           mov        qword [fixed.handle], rax
    83                                  
    84 0000008A 488B3C25[00000000]           mov        rdi, qword [window.handle]
    85 00000092 488B3425[41000000]           mov        rsi, qword [fixed.handle]
    86 0000009A E8(00000000)                 call       gtk_container_add
    87                                  
    88                                       ; 3. Instantiate Buttons
    89 0000009F 48BF-                        mov        rdi, button1.label
    89 000000A1 [1900000000000000] 
    90 000000A9 E8(00000000)                 call       gtk_button_new_with_label
    91 000000AE 48890425[11000000]           mov        qword [button1.handle], rax
    92                                  
    93 000000B6 48BF-                        mov        rdi, button2.label
    93 000000B8 [2900000000000000] 
    94 000000C0 E8(00000000)                 call       gtk_button_new_with_label
    95 000000C5 48890425[21000000]           mov        qword [button2.handle], rax
    96                                  
    97 000000CD 48BF-                        mov        rdi, button3.label
    97 000000CF [3900000000000000] 
    98 000000D7 E8(00000000)                 call       gtk_button_new_with_label
    99 000000DC 48890425[31000000]           mov        qword [button3.handle], rax
   100                                  
   101                                       ; Pack button1 into layout grid at (150, 50)
   102 000000E4 488B3C25[41000000]           mov        rdi, qword [fixed.handle]
   103 000000EC 488B3425[11000000]           mov        rsi, qword [button1.handle]
   104 000000F4 BA96000000                   mov        rdx, 150
   105 000000F9 B932000000                   mov        rcx, 50
   106 000000FE E8(00000000)                 call       gtk_fixed_put
   107                                  
   108                                       ; Pack button2 into layout grid at (15, 15)
   109 00000103 488B3C25[41000000]           mov        rdi, qword [fixed.handle]
   110 0000010B 488B3425[21000000]           mov        rsi, qword [button2.handle]
   111 00000113 BA0F000000                   mov        rdx, 15
   112 00000118 B90F000000                   mov        rcx, 15
   113 0000011D E8(00000000)                 call       gtk_fixed_put
   114                                  
   115                                       ; Pack button3 into layout grid at (100, 100)
   116 00000122 488B3C25[41000000]           mov        rdi, qword [fixed.handle]
   117 0000012A 488B3425[31000000]           mov        rsi, qword [button3.handle]
   118 00000132 BA64000000                   mov        rdx, 100
   119 00000137 B964000000                   mov        rcx, 100
   120 0000013C E8(00000000)                 call       gtk_fixed_put
   121                                  
   122                                       ; Apply sizing
   123 00000141 488B3C25[11000000]           mov        rdi, qword [button1.handle]
   124 00000149 BE50000000                   mov        rsi, 80
   125 0000014E BA23000000                   mov        rdx, 35
   126 00000153 E8(00000000)                 call       gtk_widget_set_size_request
   127                                  
   128 00000158 488B3C25[21000000]           mov        rdi, qword [button2.handle]
   129 00000160 BE50000000                   mov        rsi, 80
   130 00000165 BA23000000                   mov        rdx, 35
   131 0000016A E8(00000000)                 call       gtk_widget_set_size_request
   132                                  
   133 0000016F 488B3C25[31000000]           mov        rdi, qword [button3.handle]
   134 00000177 BE50000000                   mov        rsi, 80
   135 0000017C BA23000000                   mov        rdx, 35
   136 00000181 E8(00000000)                 call       gtk_widget_set_size_request
   137                                  
   138                                       ; 4. Signal Connections & Main Loop
   139 00000186 4531C9                       xor        r9d, r9d
   140 00000189 4531C0                       xor        r8d, r8d
   141 0000018C 4831C9                       xor        rcx, rcx
   142 0000018F 48BA-                        mov        rdx, gtk_main_quit
   142 00000191 [0000000000000000] 
   143 00000199 48BE-                        mov        rsi, signal.destroy
   143 0000019B [4900000000000000] 
   144 000001A3 488B3C25[00000000]           mov        rdi, qword [window.handle]
   145 000001AB E8(00000000)                 call       g_signal_connect_data
   146                                  
   147 000001B0 488B3C25[00000000]           mov        rdi, qword [window.handle]
   148 000001B8 E8(00000000)                 call       gtk_widget_show_all
   149 000001BD E8(00000000)                 call       gtk_main
   150                                  
   151 000001C2 4831FF                       xor        rdi, rdi
   152 000001C5 E8(00000000)                 call       exit
