     1                                  ; ==============================================================================
     2                                  ; Name        : gtkalignment.asm
     3                                  ; Author      : Roberto Aguas Guerreiro [agguro]
     4                                  ; Description : Layout management forcing buttons to the bottom-right corner
     5                                  ; ABI Status  : Compliant (Stack-aligned, Callee-saved preserved)
     6                                  ; ==============================================================================
     7                                  
     8                                  bits 64
     9                                  
    10                                  [list -]
    19                                  
    20                                  section .data
    21                                       window:
    22 00000000 0000000000000000             .handle:         dq   0
    23 00000008 47746B416C69676E6D-          .title:          db   "GtkAlignment", 0
    23 00000011 656E7400           
    24                                  
    25                                       bttnOK:
    26 00000015 0000000000000000             .handle:         dq   0
    27 0000001D 4F4B00                       .label:          db   "OK", 0
    28                                  
    29                                       bttnClose:
    30 00000020 0000000000000000             .handle:         dq   0
    31 00000028 436C6F736500                 .label:          db   "Close", 0
    32                                  
    33                                       signal:
    34 0000002E 64657374726F7900             .destroy:        db   "destroy", 0
    35                                  
    36                                       vbox:
    37 00000036 0000000000000000             .handle:         dq   0
    38                                  
    39                                       hbox:
    40 0000003E 0000000000000000             .handle:         dq   0
    41                                  
    42                                       valign:
    43 00000046 0000000000000000             .handle:         dq   0
    44                                  
    45                                       halign:
    46 0000004E 0000000000000000             .handle:         dq   0
    47                                  
    48                                       ; Float constants for gtk_alignment_new (gfloat = 32-bit float)
    49 00000056 00000000                     float_0:         dd   0.0
    50 0000005A 0000803F                     float_1:         dd   1.0
    51                                  
    52                                  section .text
    53                                       global _start
    54                                  
    55                                  _start:
    56                                       ; -------------------------------------------------------------------------
    57                                       ; 1. Stack Alignment conform System V AMD64 ABI
    58                                       ; -------------------------------------------------------------------------
    59 00000000 488B3C24                     mov        rdi, [rsp]                ; argc
    60 00000004 488D742408                   lea        rsi, [rsp + 8]            ; argv
    61 00000009 4989FC                       mov        r12, rdi
    62 0000000C 4989F5                       mov        r13, rsi
    63                                  
    64 0000000F 4883E4F0                     and        rsp, -16
    65 00000013 4883EC10                     sub        rsp, 16
    66 00000017 488D3C24                     lea        rdi, [rsp]
    67 0000001B 4C8927                       mov        [rdi], r12
    68 0000001E 488D742408                   lea        rsi, [rsp + 8]
    69 00000023 4C892E                       mov        [rsi], r13
    70                                  
    71 00000026 E8(00000000)                 call       gtk_init
    72                                  
    73                                       ; -------------------------------------------------------------------------
    74                                       ; 2. Build Structural Containers
    75                                       ; -------------------------------------------------------------------------
    76 0000002B BF00000000                   mov        rdi, GTK_WINDOW_TOPLEVEL
    77 00000030 E8(00000000)                 call       gtk_window_new
    78 00000035 48890425[00000000]           mov        qword [window.handle], rax
    79                                  
    80                                       ; Top-level vertical layout box
    81 0000003D BF01000000                   mov        rdi, GTK_ORIENTATION_VERTICAL
    82 00000042 4831F6                       xor        rsi, rsi
    83 00000045 E8(00000000)                 call       gtk_box_new
    84 0000004A 48890425[36000000]           mov        qword [vbox.handle], rax
    85                                  
    86                                       ; Horizontal button rows pack box
    87 00000052 BF00000000                   mov        rdi, GTK_ORIENTATION_HORIZONTAL
    88 00000057 BE05000000                   mov        rsi, 5                    ; Spacing between buttons = 5px
    89 0000005C E8(00000000)                 call       gtk_box_new
    90 00000061 48890425[3E000000]           mov        qword [hbox.handle], rax
    91                                  
    92                                       ; Vertical alignment (xalign=0.0, yalign=1.0 [Bottom], xscale=1.0, yscale=0.0)
    93 00000069 F30F100425-                  movss      xmm0, dword [float_0]
    93 0000006E [56000000]         
    94 00000072 F30F100C25-                  movss      xmm1, dword [float_1]
    94 00000077 [5A000000]         
    95 0000007B F30F101425-                  movss      xmm2, dword [float_1]
    95 00000080 [5A000000]         
    96 00000084 F30F101C25-                  movss      xmm3, dword [float_0]
    96 00000089 [56000000]         
    97 0000008D E8(00000000)                 call       gtk_alignment_new
    98 00000092 48890425[46000000]           mov        qword [valign.handle], rax
    99                                  
   100                                       ; Horizontal alignment (xalign=1.0 [Right], yalign=0.0, xscale=0.0, yscale=0.0)
   101 0000009A F30F100425-                  movss      xmm0, dword [float_1]
   101 0000009F [5A000000]         
   102 000000A3 F30F100C25-                  movss      xmm1, dword [float_0]
   102 000000A8 [56000000]         
   103 000000AC F30F101425-                  movss      xmm2, dword [float_0]
   103 000000B1 [56000000]         
   104 000000B5 F30F101C25-                  movss      xmm3, dword [float_0]
   104 000000BA [56000000]         
   105 000000BE E8(00000000)                 call       gtk_alignment_new
   106 000000C3 48890425[4E000000]           mov        qword [halign.handle], rax
   107                                  
   108                                       ; -------------------------------------------------------------------------
   109                                       ; 3. Instantiate and Pack Widgets
   110                                       ; -------------------------------------------------------------------------
   111 000000CB 48BF-                        mov        rdi, bttnOK.label
   111 000000CD [1D00000000000000] 
   112 000000D5 E8(00000000)                 call       gtk_button_new_with_label
   113 000000DA 48890425[15000000]           mov        qword [bttnOK.handle], rax
   114                                  
   115 000000E2 48BF-                        mov        rdi, bttnClose.label
   115 000000E4 [2800000000000000] 
   116 000000EC E8(00000000)                 call       gtk_button_new_with_label
   117 000000F1 48890425[20000000]           mov        qword [bttnClose.handle], rax
   118                                  
   119                                       ; Enforce standardized size limits
   120 000000F9 488B3C25[15000000]           mov        rdi, qword [bttnOK.handle]
   121 00000101 BE46000000                   mov        rsi, 70
   122 00000106 BA1E000000                   mov        rdx, 30
   123 0000010B E8(00000000)                 call       gtk_widget_set_size_request
   124                                  
   125 00000110 488B3C25[20000000]           mov        rdi, qword [bttnClose.handle]
   126 00000118 BE46000000                   mov        rsi, 70
   127 0000011D BA1E000000                   mov        rdx, 30
   128 00000122 E8(00000000)                 call       gtk_widget_set_size_request
   129                                  
   130                                       ; Pack into HBox
   131 00000127 488B3C25[3E000000]           mov        rdi, qword [hbox.handle]
   132 0000012F 488B3425[15000000]           mov        rsi, qword [bttnOK.handle]
   133 00000137 4831D2                       xor        rdx, rdx
   134 0000013A 4831C9                       xor        rcx, rcx
   135 0000013D 4531C0                       xor        r8d, r8d
   136 00000140 E8(00000000)                 call       gtk_box_pack_start
   137                                  
   138 00000145 488B3C25[3E000000]           mov        rdi, qword [hbox.handle]
   139 0000014D 488B3425[20000000]           mov        rsi, qword [bttnClose.handle]
   140 00000155 4831D2                       xor        rdx, rdx
   141 00000158 4831C9                       xor        rcx, rcx
   142 0000015B 4531C0                       xor        r8d, r8d
   143 0000015E E8(00000000)                 call       gtk_box_pack_start
   144                                  
   145                                       ; -------------------------------------------------------------------------
   146                                       ; 4. Pipeline Tree (vbox -> valign -> halign -> hbox)
   147                                       ; -------------------------------------------------------------------------
   148 00000163 488B3C25[4E000000]           mov        rdi, qword [halign.handle]
   149 0000016B 488B3425[3E000000]           mov        rsi, qword [hbox.handle]
   150 00000173 E8(00000000)                 call       gtk_container_add
   151                                  
   152 00000178 488B3C25[46000000]           mov        rdi, qword [valign.handle]
   153 00000180 488B3425[4E000000]           mov        rsi, qword [halign.handle]
   154 00000188 E8(00000000)                 call       gtk_container_add
   155                                  
   156 0000018D 488B3C25[36000000]           mov        rdi, qword [vbox.handle]
   157 00000195 488B3425[46000000]           mov        rsi, qword [valign.handle]
   158 0000019D BA01000000                   mov        rdx, TRUE                 ; expand
   159 000001A2 B901000000                   mov        rcx, TRUE                 ; fill
   160 000001A7 4531C0                       xor        r8d, r8d
   161 000001AA E8(00000000)                 call       gtk_box_pack_start
   162                                  
   163 000001AF 488B3C25[00000000]           mov        rdi, qword [window.handle]
   164 000001B7 488B3425[36000000]           mov        rsi, qword [vbox.handle]
   165 000001BF E8(00000000)                 call       gtk_container_add
   166                                  
   167                                       ; -------------------------------------------------------------------------
   168                                       ; 5. Final Configuration
   169                                       ; -------------------------------------------------------------------------
   170 000001C4 488B3C25[00000000]           mov        rdi, qword [window.handle]
   171 000001CC BE01000000                   mov        rsi, GTK_WIN_POS_CENTER
   172 000001D1 E8(00000000)                 call       gtk_window_set_position
   173                                  
   174 000001D6 488B3C25[00000000]           mov        rdi, qword [window.handle]
   175 000001DE BE2C010000                   mov        rsi, 300
   176 000001E3 BAFA000000                   mov        rdx, 250
   177 000001E8 E8(00000000)                 call       gtk_window_set_default_size
   178                                  
   179 000001ED 488B3C25[00000000]           mov        rdi, qword [window.handle]
   180 000001F5 48BE-                        mov        rsi, window.title
   180 000001F7 [0800000000000000] 
   181 000001FF E8(00000000)                 call       gtk_window_set_title
   182                                  
   183 00000204 488B3C25[00000000]           mov        rdi, qword [window.handle]
   184 0000020C BE0A000000                   mov        rsi, 10
   185 00000211 E8(00000000)                 call       gtk_container_set_border_width
   186                                  
   187 00000216 4531C9                       xor        r9d, r9d
   188 00000219 4531C0                       xor        r8d, r8d
   189 0000021C 4831C9                       xor        rcx, rcx
   190 0000021F 48BA-                        mov        rdx, gtk_main_quit
   190 00000221 [0000000000000000] 
   191 00000229 48BE-                        mov        rsi, signal.destroy
   191 0000022B [2E00000000000000] 
   192 00000233 488B3C25[00000000]           mov        rdi, qword [window.handle]
   193 0000023B E8(00000000)                 call       g_signal_connect_data
   194                                  
   195 00000240 488B3C25[00000000]           mov        rdi, qword [window.handle]
   196 00000248 E8(00000000)                 call       gtk_widget_show_all
   197 0000024D E8(00000000)                 call       gtk_main
   198                                  
   199 00000252 4831FF                       xor        rdi, rdi
   200 00000255 E8(00000000)                 call       exit
