     1                                  ; ==============================================================================
     2                                  ; Name        : msgdialogs.asm
     3                                  ; Author      : Roberto Aguas Guerreiro [agguro]
     4                                  ; Description : Message dialog boxes mapping multiple alert variants
     5                                  ; ABI Status  : Compliant (Stack-aligned, Callee-saved preserved)
     6                                  ; ==============================================================================
     7                                  
     8                                  bits 64
     9                                  
    10                                  [list -]
    19                                  
    20                                  section .bss
    21                                       window:
    22 00000000 ????????????????             .handle:          resq      1
    23                                       table:
    24 00000008 ????????????????             .handle:          resq      1
    25                                       dialog:
    26 00000010 ????????????????             .handle:          resq      1
    27                                       info:
    28 00000018 ????????????????             .handle:          resq      1
    29                                       error:
    30 00000020 ????????????????             .handle:          resq      1
    31                                       question:
    32 00000028 ????????????????             .handle:          resq      1
    33                                       warning:
    34 00000030 ????????????????             .handle:          resq      1
    35                                  
    36                                  section .data
    37 00000000 4D6573736167652064-          window.title:     db        "Message dialogs", 0
    37 00000009 69616C6F677300     
    38                                       signal:
    39 00000010 636C69636B656400             .clicked:         db        "clicked", 0
    40 00000018 64657374726F7900             .destroy:         db        "destroy", 0
    41                                  
    42                                       info.data:
    43 00000020 446F776E6C6F616420-          .message:         db        "Download completed", 0
    43 00000029 636F6D706C65746564-
    43 00000032 00                 
    44 00000033 496E666F726D617469-          .title:           db        "Information", 0
    44 0000003C 6F6E00             
    45 0000003F 496E666F00                   .label:           db        "Info", 0
    46                                  
    47                                       error.data:
    48 00000044 4572726F72206C6F61-          .message:         db        "Error loading file", 0
    48 0000004D 64696E672066696C65-
    48 00000056 00                 
    49 00000057 4572726F7200                 .title:           db        "Error", 0
    50 0000005D 4572726F7200                 .label:           db        "Error", 0
    51                                  
    52                                       question.data:
    53 00000063 41726520796F752073-          .message:         db        "Are you sure to quit?", 0
    53 0000006C 75726520746F207175-
    53 00000075 69743F00           
    54 00000079 5175657374696F6E00           .title:           db        "Question", 0
    55 00000082 5175657374696F6E00           .label:           db        "Question", 0
    56                                  
    57                                       warning.data:
    58 0000008B 556E616C6C6F776564-          .message:         db        "Unallowed operation", 0
    58 00000094 206F7065726174696F-
    58 0000009D 6E00               
    59 0000009F 5761726E696E6700             .title:           db        "Warning", 0
    60 000000A7 5761726E696E6700             .label:           db        "Warning", 0
    61                                  
    62                                  section .text
    63                                       global _start
    64                                  
    65                                  _start:
    66                                       ; 1. Stack Alignment & GTK3 Init
    67 00000000 488B3C24                     mov        rdi, [rsp]
    68 00000004 488D742408                   lea        rsi, [rsp + 8]
    69 00000009 4989FC                       mov        r12, rdi
    70 0000000C 4989F5                       mov        r13, rsi
    71                                  
    72 0000000F 4883E4F0                     and        rsp, -16
    73 00000013 4883EC10                     sub        rsp, 16
    74 00000017 488D3C24                     lea        rdi, [rsp]
    75 0000001B 4C8927                       mov        [rdi], r12
    76 0000001E 488D742408                   lea        rsi, [rsp + 8]
    77 00000023 4C892E                       mov        [rsi], r13
    78                                  
    79 00000026 E8(00000000)                 call       gtk_init
    80                                  
    81                                       ; 2. Build Window
    82 0000002B BF00000000                   mov        rdi, GTK_WINDOW_TOPLEVEL
    83 00000030 E8(00000000)                 call       gtk_window_new
    84 00000035 48890425[00000000]           mov        qword [window.handle], rax
    85 0000003D 488B3C25[00000000]           mov        rdi, qword [window.handle]
    86 00000045 BE01000000                   mov        rsi, 1
    87 0000004A E8(00000000)                 call       gtk_window_set_position
    88 0000004F 488B3C25[00000000]           mov        rdi, qword [window.handle]
    89 00000057 BEDC000000                   mov        rsi, 220
    90 0000005C BA96000000                   mov        rdx, 150
    91 00000061 E8(00000000)                 call       gtk_window_set_default_size
    92 00000066 488B3C25[00000000]           mov        rdi, qword [window.handle]
    93 0000006E 48BE-                        mov        rsi, window.title
    93 00000070 [0000000000000000] 
    94 00000078 E8(00000000)                 call       gtk_window_set_title
    95                                  
    96 0000007D BF02000000                   mov        rdi, 2
    97 00000082 BE02000000                   mov        rsi, 2
    98 00000087 BA01000000                   mov        rdx, 1
    99 0000008C E8(00000000)                 call       gtk_table_new
   100 00000091 48890425[08000000]           mov        qword [table.handle], rax
   101 00000099 488B3C25[08000000]           mov        rdi, qword [table.handle]
   102 000000A1 BE02000000                   mov        rsi, 2
   103 000000A6 E8(00000000)                 call       gtk_table_set_row_spacings
   104 000000AB 488B3C25[08000000]           mov        rdi, qword [table.handle]
   105 000000B3 BE02000000                   mov        rsi, 2
   106 000000B8 E8(00000000)                 call       gtk_table_set_col_spacings
   107                                  
   108                                       ; Instantiate Buttons
   109 000000BD 48BF-                        mov        rdi, info.data.label
   109 000000BF [3F00000000000000] 
   110 000000C7 E8(00000000)                 call       gtk_button_new_with_label
   111 000000CC 48890425[18000000]           mov        qword [info.handle], rax
   112 000000D4 48BF-                        mov        rdi, warning.data.label
   112 000000D6 [A700000000000000] 
   113 000000DE E8(00000000)                 call       gtk_button_new_with_label
   114 000000E3 48890425[30000000]           mov        qword [warning.handle], rax
   115 000000EB 48BF-                        mov        rdi, question.data.label
   115 000000ED [8200000000000000] 
   116 000000F5 E8(00000000)                 call       gtk_button_new_with_label
   117 000000FA 48890425[28000000]           mov        qword [question.handle], rax
   118 00000102 48BF-                        mov        rdi, error.data.label
   118 00000104 [5D00000000000000] 
   119 0000010C E8(00000000)                 call       gtk_button_new_with_label
   120 00000111 48890425[20000000]           mov        qword [error.handle], rax
   121                                  
   122                                       ; 3. Attach to Grid
   123                                       %macro attach_btn 6
   124                                          mov     rdi, qword [table.handle]
   125                                          mov     rsi, qword [%1.handle]
   126                                          mov     rdx, %2
   127                                          mov     rcx, %3
   128                                          mov     r8,  %4
   129                                          mov     r9,  %5
   130                                          push    3
   131                                          push    3
   132                                          push    %6
   133                                          push    %6
   134                                          call    gtk_table_attach
   135                                          add     rsp, 32
   136                                       %endmacro
   137                                  
   138                                       attach_btn info, 0, 1, 0, 1, 4
   124 00000119 488B3C25[08000000]  <1>  mov rdi, qword [table.handle]
   125 00000121 488B3425[18000000]  <1>  mov rsi, qword [%1.handle]
   126 00000129 BA00000000          <1>  mov rdx, %2
   127 0000012E B901000000          <1>  mov rcx, %3
   128 00000133 41B800000000        <1>  mov r8, %4
   129 00000139 41B901000000        <1>  mov r9, %5
   130 0000013F 6A03                <1>  push 3
   131 00000141 6A03                <1>  push 3
   132 00000143 6A04                <1>  push %6
   133 00000145 6A04                <1>  push %6
   134 00000147 E8(00000000)        <1>  call gtk_table_attach
   135 0000014C 4883C420            <1>  add rsp, 32
   139                                       attach_btn warning, 1, 2, 0, 1, 4
   124 00000150 488B3C25[08000000]  <1>  mov rdi, qword [table.handle]
   125 00000158 488B3425[30000000]  <1>  mov rsi, qword [%1.handle]
   126 00000160 BA01000000          <1>  mov rdx, %2
   127 00000165 B902000000          <1>  mov rcx, %3
   128 0000016A 41B800000000        <1>  mov r8, %4
   129 00000170 41B901000000        <1>  mov r9, %5
   130 00000176 6A03                <1>  push 3
   131 00000178 6A03                <1>  push 3
   132 0000017A 6A04                <1>  push %6
   133 0000017C 6A04                <1>  push %6
   134 0000017E E8(00000000)        <1>  call gtk_table_attach
   135 00000183 4883C420            <1>  add rsp, 32
   140                                       attach_btn question, 0, 1, 1, 2, 4
   124 00000187 488B3C25[08000000]  <1>  mov rdi, qword [table.handle]
   125 0000018F 488B3425[28000000]  <1>  mov rsi, qword [%1.handle]
   126 00000197 BA00000000          <1>  mov rdx, %2
   127 0000019C B901000000          <1>  mov rcx, %3
   128 000001A1 41B801000000        <1>  mov r8, %4
   129 000001A7 41B902000000        <1>  mov r9, %5
   130 000001AD 6A03                <1>  push 3
   131 000001AF 6A03                <1>  push 3
   132 000001B1 6A04                <1>  push %6
   133 000001B3 6A04                <1>  push %6
   134 000001B5 E8(00000000)        <1>  call gtk_table_attach
   135 000001BA 4883C420            <1>  add rsp, 32
   141                                       attach_btn error, 1, 2, 1, 2, 4
   124 000001BE 488B3C25[08000000]  <1>  mov rdi, qword [table.handle]
   125 000001C6 488B3425[20000000]  <1>  mov rsi, qword [%1.handle]
   126 000001CE BA01000000          <1>  mov rdx, %2
   127 000001D3 B902000000          <1>  mov rcx, %3
   128 000001D8 41B801000000        <1>  mov r8, %4
   129 000001DE 41B902000000        <1>  mov r9, %5
   130 000001E4 6A03                <1>  push 3
   131 000001E6 6A03                <1>  push 3
   132 000001E8 6A04                <1>  push %6
   133 000001EA 6A04                <1>  push %6
   134 000001EC E8(00000000)        <1>  call gtk_table_attach
   135 000001F1 4883C420            <1>  add rsp, 32
   142                                  
   143 000001F5 488B3C25[00000000]           mov        rdi, qword [window.handle]
   144 000001FD 488B3425[08000000]           mov        rsi, qword [table.handle]
   145 00000205 E8(00000000)                 call       gtk_container_add
   146 0000020A 488B3C25[00000000]           mov        rdi, qword [window.handle]
   147 00000212 BE0F000000                   mov        rsi, 15
   148 00000217 E8(00000000)                 call       gtk_container_set_border_width
   149                                  
   150                                       ; 4. Signals
   151                                       %macro connect_sig 3
   152                                          xor     r9d, r9d
   153                                          xor     r8d, r8d
   154                                          mov     rcx, qword [window.handle]
   155                                          mov     rdx, %3
   156                                          mov     rsi, signal.clicked
   157                                          mov     rdi, qword [%1.handle]
   158                                          call    g_signal_connect_data
   159                                       %endmacro
   160                                  
   161                                       connect_sig info, signal.clicked, show_info
   152 0000021C 4531C9              <1>  xor r9d, r9d
   153 0000021F 4531C0              <1>  xor r8d, r8d
   154 00000222 488B0C25[00000000]  <1>  mov rcx, qword [window.handle]
   155 0000022A 48BA-               <1>  mov rdx, %3
   155 0000022C [1C03000000000000]  <1>
   156 00000234 48BE-               <1>  mov rsi, signal.clicked
   156 00000236 [1000000000000000]  <1>
   157 0000023E 488B3C25[18000000]  <1>  mov rdi, qword [%1.handle]
   158 00000246 E8(00000000)        <1>  call g_signal_connect_data
   162                                       connect_sig warning, signal.clicked, show_warning
   152 0000024B 4531C9              <1>  xor r9d, r9d
   153 0000024E 4531C0              <1>  xor r8d, r8d
   154 00000251 488B0C25[00000000]  <1>  mov rcx, qword [window.handle]
   155 00000259 48BA-               <1>  mov rdx, %3
   155 0000025B [5104000000000000]  <1>
   156 00000263 48BE-               <1>  mov rsi, signal.clicked
   156 00000265 [1000000000000000]  <1>
   157 0000026D 488B3C25[30000000]  <1>  mov rdi, qword [%1.handle]
   158 00000275 E8(00000000)        <1>  call g_signal_connect_data
   163                                       connect_sig question, signal.clicked, show_question
   152 0000027A 4531C9              <1>  xor r9d, r9d
   153 0000027D 4531C0              <1>  xor r8d, r8d
   154 00000280 488B0C25[00000000]  <1>  mov rcx, qword [window.handle]
   155 00000288 48BA-               <1>  mov rdx, %3
   155 0000028A [EA03000000000000]  <1>
   156 00000292 48BE-               <1>  mov rsi, signal.clicked
   156 00000294 [1000000000000000]  <1>
   157 0000029C 488B3C25[28000000]  <1>  mov rdi, qword [%1.handle]
   158 000002A4 E8(00000000)        <1>  call g_signal_connect_data
   164                                       connect_sig error, signal.clicked, show_error
   152 000002A9 4531C9              <1>  xor r9d, r9d
   153 000002AC 4531C0              <1>  xor r8d, r8d
   154 000002AF 488B0C25[00000000]  <1>  mov rcx, qword [window.handle]
   155 000002B7 48BA-               <1>  mov rdx, %3
   155 000002B9 [8303000000000000]  <1>
   156 000002C1 48BE-               <1>  mov rsi, signal.clicked
   156 000002C3 [1000000000000000]  <1>
   157 000002CB 488B3C25[20000000]  <1>  mov rdi, qword [%1.handle]
   158 000002D3 E8(00000000)        <1>  call g_signal_connect_data
   165                                  
   166 000002D8 4531C9                       xor        r9d, r9d
   167 000002DB 4531C0                       xor        r8d, r8d
   168 000002DE 4831C9                       xor        rcx, rcx
   169 000002E1 48BA-                        mov        rdx, gtk_main_quit
   169 000002E3 [0000000000000000] 
   170 000002EB 48BE-                        mov        rsi, signal.destroy
   170 000002ED [1800000000000000] 
   171 000002F5 488B3C25[00000000]           mov        rdi, qword [window.handle]
   172 000002FD E8(00000000)                 call       g_signal_connect_data
   173                                  
   174 00000302 488B3C25[00000000]           mov        rdi, qword [window.handle]
   175 0000030A E8(00000000)                 call       gtk_widget_show_all
   176 0000030F E8(00000000)                 call       gtk_main
   177 00000314 4831FF                       xor        rdi, rdi
   178 00000317 E8(00000000)                 call       exit
   179                                  
   180                                  ; Callbacks
   181                                  show_info:
   182 0000031C 55                           push rbp
   183 0000031D 4889E5                       mov rbp, rsp
   184 00000320 4883E4F0                     and rsp, -16
   185 00000324 4889F7                       mov rdi, rsi
   186 00000327 BE02000000                   mov rsi, 2
   187 0000032C BA00000000                   mov rdx, 0
   188 00000331 B901000000                   mov rcx, 1
   189 00000336 49B8-                        mov r8, info.data.message
   189 00000338 [2000000000000000] 
   190 00000340 4831C0                       xor rax, rax
   191 00000343 E8(00000000)                 call gtk_message_dialog_new
   192 00000348 48890425[10000000]           mov [dialog.handle], rax
   193 00000350 488B3C25[10000000]           mov rdi, [dialog.handle]
   194 00000358 48BE-                        mov rsi, info.data.title
   194 0000035A [3300000000000000] 
   195 00000362 E8(00000000)                 call gtk_window_set_title
   196 00000367 488B3C25[10000000]           mov rdi, [dialog.handle]
   197 0000036F E8(00000000)                 call gtk_dialog_run
   198 00000374 488B3C25[10000000]           mov rdi, [dialog.handle]
   199 0000037C E8(00000000)                 call gtk_widget_destroy
   200 00000381 C9                           leave
   201 00000382 C3                           ret
   202                                  
   203                                  show_error:
   204 00000383 55                           push rbp
   205 00000384 4889E5                       mov rbp, rsp
   206 00000387 4883E4F0                     and rsp, -16
   207 0000038B 4889F7                       mov rdi, rsi
   208 0000038E BE02000000                   mov rsi, 2
   209 00000393 BA03000000                   mov rdx, 3
   210 00000398 B901000000                   mov rcx, 1
   211 0000039D 49B8-                        mov r8, error.data.message
   211 0000039F [4400000000000000] 
   212 000003A7 4831C0                       xor rax, rax
   213 000003AA E8(00000000)                 call gtk_message_dialog_new
   214 000003AF 48890425[10000000]           mov [dialog.handle], rax
   215 000003B7 488B3C25[10000000]           mov rdi, [dialog.handle]
   216 000003BF 48BE-                        mov rsi, error.data.title
   216 000003C1 [5700000000000000] 
   217 000003C9 E8(00000000)                 call gtk_window_set_title
   218 000003CE 488B3C25[10000000]           mov rdi, [dialog.handle]
   219 000003D6 E8(00000000)                 call gtk_dialog_run
   220 000003DB 488B3C25[10000000]           mov rdi, [dialog.handle]
   221 000003E3 E8(00000000)                 call gtk_widget_destroy
   222 000003E8 C9                           leave
   223 000003E9 C3                           ret
   224                                  
   225                                  show_question:
   226 000003EA 55                           push rbp
   227 000003EB 4889E5                       mov rbp, rsp
   228 000003EE 4883E4F0                     and rsp, -16
   229 000003F2 4889F7                       mov rdi, rsi
   230 000003F5 BE02000000                   mov rsi, 2
   231 000003FA BA02000000                   mov rdx, 2
   232 000003FF B904000000                   mov rcx, 4
   233 00000404 49B8-                        mov r8, question.data.message
   233 00000406 [6300000000000000] 
   234 0000040E 4831C0                       xor rax, rax
   235 00000411 E8(00000000)                 call gtk_message_dialog_new
   236 00000416 48890425[10000000]           mov [dialog.handle], rax
   237 0000041E 488B3C25[10000000]           mov rdi, [dialog.handle]
   238 00000426 48BE-                        mov rsi, question.data.title
   238 00000428 [7900000000000000] 
   239 00000430 E8(00000000)                 call gtk_window_set_title
   240 00000435 488B3C25[10000000]           mov rdi, [dialog.handle]
   241 0000043D E8(00000000)                 call gtk_dialog_run
   242 00000442 488B3C25[10000000]           mov rdi, [dialog.handle]
   243 0000044A E8(00000000)                 call gtk_widget_destroy
   244 0000044F C9                           leave
   245 00000450 C3                           ret
   246                                  
   247                                  show_warning:
   248 00000451 55                           push rbp
   249 00000452 4889E5                       mov rbp, rsp
   250 00000455 4883E4F0                     and rsp, -16
   251 00000459 4889F7                       mov rdi, rsi
   252 0000045C BE02000000                   mov rsi, 2
   253 00000461 BA01000000                   mov rdx, 1
   254 00000466 B901000000                   mov rcx, 1
   255 0000046B 49B8-                        mov r8, warning.data.message
   255 0000046D [8B00000000000000] 
   256 00000475 4831C0                       xor rax, rax
   257 00000478 E8(00000000)                 call gtk_message_dialog_new
   258 0000047D 48890425[10000000]           mov [dialog.handle], rax
   259 00000485 488B3C25[10000000]           mov rdi, [dialog.handle]
   260 0000048D 48BE-                        mov rsi, warning.data.title
   260 0000048F [9F00000000000000] 
   261 00000497 E8(00000000)                 call gtk_window_set_title
   262 0000049C 488B3C25[10000000]           mov rdi, [dialog.handle]
   263 000004A4 E8(00000000)                 call gtk_dialog_run
   264 000004A9 488B3C25[10000000]           mov rdi, [dialog.handle]
   265 000004B1 E8(00000000)                 call gtk_widget_destroy
   266 000004B6 C9                           leave
   267 000004B7 C3                           ret
