     1                                  ; ==============================================================================
     2                                  ; Name        : statusbar.asm
     3                                  ; Author      : Roberto Aguas Guerreiro [agguro]
     4                                  ; Description : A window incorporating a checkmenu item toggling the visibility 
     5                                  ;               of a statusbar widget
     6                                  ; ABI Status  : Compliant (Stack-aligned, Callee-saved preserved)
     7                                  ; ==============================================================================
     8                                  
     9                                  bits 64
    10                                  
    11                                  [list -]
    20                                  
    21                                  section .bss
    22                                       window:
    23 00000000 ????????????????             .handle:          resq      1
    24 00000008 ????????????????             pixbuffer:        resq      1
    25 00000010 ????????????????             error:            resq      1
    26                                       box:
    27 00000018 ????????????????             .handle:          resq      1
    28                                       menubar:
    29 00000020 ????????????????             .handle:          resq      1
    30                                       viewmenu:
    31 00000028 ????????????????             .handle:          resq      1
    32                                       view:
    33 00000030 ????????????????             .handle:          resq      1
    34                                       tog_stat:
    35 00000038 ????????????????             .handle:          resq      1
    36                                       statusbar:
    37 00000040 ????????????????             .handle:          resq      1
    38                                  
    39                                  section .data
    40                                       mainwindow:
    41 00000000 6D656E7500                   .title:           db        "menu", 0
    42                                       
    43                                       signal:
    44 00000005 64657374726F7900             .destroy:         db        "destroy", 0
    45 0000000D 616374697661746500           .activate:        db        "activate", 0
    46                                  
    47                                       icon:
    48 00000016 7265736F7572636573-          .file:            db        "resources/pictures/logo.png", 0
    48 0000001F 2F7069637475726573-
    48 00000028 2F6C6F676F2E706E67-
    48 00000031 00                 
    49                                  
    50                                       menuitem.text:
    51 00000032 5669657700                   .view:            db        "View", 0
    52 00000037 566965772073746174-          .viewstatusbar:   db        "View statusbar", 0
    52 00000040 757362617200       
    53                                  
    54                                  section .text
    55                                       global _start
    56                                  
    57                                  _start:
    58                                       ; 1. Retrieve argc/argv and enforce System V AMD64 ABI Stack Alignment
    59 00000000 488B3C24                     mov        rdi, [rsp]
    60 00000004 488D742408                   lea        rsi, [rsp + 8]
    61 00000009 4989FC                       mov        r12, rdi
    62 0000000C 4989F5                       mov        r13, rsi
    63                                  
    64 0000000F 4883E4F0                     and        rsp, -16
    65 00000013 4883EC10                     sub        rsp, 16
    66 00000017 488D3C24                     lea        rdi, [rsp]
    67 0000001B 4C8927                       mov        [rdi], r12
    68 0000001E 488D742408                   lea        rsi, [rsp + 8]
    69 00000023 4C892E                       mov        [rsi], r13
    70                                  
    71 00000026 E8(00000000)                 call       gtk_init
    72                                  
    73                                       ; 2. Build Window Layout & Frame Structures
    74 0000002B BF00000000                   mov        rdi, GTK_WINDOW_TOPLEVEL
    75 00000030 E8(00000000)                 call       gtk_window_new
    76 00000035 48890425[00000000]           mov        qword [window.handle], rax
    77                                  
    78 0000003D 488B3C25[00000000]           mov        rdi, qword [window.handle]
    79 00000045 BE01000000                   mov        rsi, GTK_WIN_POS_CENTER
    80 0000004A E8(00000000)                 call       gtk_window_set_position
    81                                  
    82 0000004F 488B3C25[00000000]           mov        rdi, qword [window.handle]
    83 00000057 BEFA000000                   mov        rsi, 250
    84 0000005C BAC8000000                   mov        rdx, 200
    85 00000061 E8(00000000)                 call       gtk_window_set_default_size
    86                                  
    87 00000066 488B3C25[00000000]           mov        rdi, qword [window.handle]
    88 0000006E 48BE-                        mov        rsi, mainwindow.title
    88 00000070 [0000000000000000] 
    89 00000078 E8(00000000)                 call       gtk_window_set_title
    90                                  
    91 0000007D 48BF-                        mov        rdi, icon.file
    91 0000007F [1600000000000000] 
    92 00000087 48BE-                        mov        rsi, error
    92 00000089 [1000000000000000] 
    93 00000091 E8(00000000)                 call       gdk_pixbuf_new_from_file
    94 00000096 48890425[08000000]           mov        qword [pixbuffer], rax
    95                                  
    96 0000009E 488B3C25[00000000]           mov        rdi, qword [window.handle]
    97 000000A6 488B3425[08000000]           mov        rsi, qword [pixbuffer]
    98 000000AE E8(00000000)                 call       gtk_window_set_icon
    99                                  
   100 000000B3 BF01000000                   mov        rdi, GTK_ORIENTATION_VERTICAL
   101 000000B8 4831F6                       xor        rsi, rsi
   102 000000BB E8(00000000)                 call       gtk_box_new
   103 000000C0 48890425[18000000]           mov        qword [box.handle], rax
   104                                  
   105 000000C8 488B3C25[00000000]           mov        rdi, qword [window.handle]
   106 000000D0 488B3425[18000000]           mov        rsi, qword [box.handle]
   107 000000D8 E8(00000000)                 call       gtk_container_add
   108                                  
   109                                       ; 3. Assemble Menu Sockets & Statusbar Element
   110 000000DD E8(00000000)                 call       gtk_menu_bar_new
   111 000000E2 48890425[20000000]           mov        qword [menubar.handle], rax
   112                                  
   113 000000EA E8(00000000)                 call       gtk_menu_new
   114 000000EF 48890425[28000000]           mov        qword [viewmenu.handle], rax
   115                                  
   116 000000F7 48BF-                        mov        rdi, menuitem.text.view
   116 000000F9 [3200000000000000] 
   117 00000101 E8(00000000)                 call       gtk_menu_item_new_with_label
   118 00000106 48890425[30000000]           mov        qword [view.handle], rax
   119                                  
   120 0000010E 48BF-                        mov        rdi, menuitem.text.viewstatusbar
   120 00000110 [3700000000000000] 
   121 00000118 E8(00000000)                 call       gtk_check_menu_item_new_with_label
   122 0000011D 48890425[38000000]           mov        qword [tog_stat.handle], rax
   123                                  
   124 00000125 488B3C25[38000000]           mov        rdi, qword [tog_stat.handle]
   125 0000012D BE01000000                   mov        rsi, TRUE
   126 00000132 E8(00000000)                 call       gtk_check_menu_item_set_active
   127                                  
   128 00000137 488B3C25[30000000]           mov        rdi, qword [view.handle]
   129 0000013F 488B3425[28000000]           mov        rsi, qword [viewmenu.handle]
   130 00000147 E8(00000000)                 call       gtk_menu_item_set_submenu
   131                                  
   132 0000014C 488B3C25[28000000]           mov        rdi, qword [viewmenu.handle]
   133 00000154 488B3425[38000000]           mov        rsi, qword [tog_stat.handle]
   134 0000015C E8(00000000)                 call       gtk_menu_shell_append
   135                                  
   136 00000161 488B3C25[20000000]           mov        rdi, qword [menubar.handle]
   137 00000169 488B3425[30000000]           mov        rsi, qword [view.handle]
   138 00000171 E8(00000000)                 call       gtk_menu_shell_append
   139                                  
   140 00000176 488B3C25[18000000]           mov        rdi, qword [box.handle]
   141 0000017E 488B3425[20000000]           mov        rsi, qword [menubar.handle]
   142 00000186 4831D2                       xor        rdx, rdx
   143 00000189 4831C9                       xor        rcx, rcx
   144 0000018C 41B803000000                 mov        r8d, 3
   145 00000192 E8(00000000)                 call       gtk_box_pack_start
   146                                  
   147 00000197 E8(00000000)                 call       gtk_statusbar_new
   148 0000019C 48890425[40000000]           mov        qword [statusbar.handle], rax
   149                                  
   150 000001A4 488B3C25[40000000]           mov        rdi, qword [statusbar.handle]
   151 000001AC 4831F6                       xor        rsi, rsi
   152 000001AF 48BA-                        mov        rdx, menuitem.text.viewstatusbar
   152 000001B1 [3700000000000000] 
   153 000001B9 E8(00000000)                 call       gtk_statusbar_push
   154                                  
   155 000001BE 488B3C25[18000000]           mov        rdi, qword [box.handle]
   156 000001C6 488B3425[40000000]           mov        rsi, qword [statusbar.handle]
   157 000001CE 4831D2                       xor        rdx, rdx
   158 000001D1 4831C9                       xor        rcx, rcx
   159 000001D4 41B801000000                 mov        r8d, 1
   160 000001DA E8(00000000)                 call       gtk_box_pack_end
   161                                  
   162                                       ; 4. Signal Connections & Runtime Execution Loops
   163 000001DF 4531C9                       xor        r9d, r9d
   164 000001E2 4531C0                       xor        r8d, r8d
   165 000001E5 4831C9                       xor        rcx, rcx
   166 000001E8 48BA-                        mov        rdx, Quit
   166 000001EA [5202000000000000] 
   167 000001F2 48BE-                        mov        rsi, signal.destroy
   167 000001F4 [0500000000000000] 
   168 000001FC 488B3C25[00000000]           mov        rdi, qword [window.handle]
   169 00000204 E8(00000000)                 call       g_signal_connect_data
   170                                  
   171 00000209 4531C9                       xor        r9d, r9d
   172 0000020C 4531C0                       xor        r8d, r8d
   173 0000020F 488B0C25[40000000]           mov        rcx, qword [statusbar.handle]
   174 00000217 48BA-                        mov        rdx, Toggle_Statusbar
   174 00000219 [6102000000000000] 
   175 00000221 48BE-                        mov        rsi, signal.activate
   175 00000223 [0D00000000000000] 
   176 0000022B 488B3C25[38000000]           mov        rdi, qword [tog_stat.handle]
   177 00000233 E8(00000000)                 call       g_signal_connect_data
   178                                  
   179 00000238 488B3C25[00000000]           mov        rdi, qword [window.handle]
   180 00000240 E8(00000000)                 call       gtk_widget_show_all
   181 00000245 E8(00000000)                 call       gtk_main
   182                                  
   183 0000024A 4831FF                       xor        rdi, rdi
   184 0000024D E8(00000000)                 call       exit
   185                                  
   186                                  ; Callbacks
   187                                  Quit:
   188 00000252 55                           push       rbp
   189 00000253 4889E5                       mov        rbp, rsp
   190 00000256 4883E4F0                     and        rsp, -16
   191 0000025A E8(00000000)                 call       gtk_main_quit
   192 0000025F C9                           leave
   193 00000260 C3                           ret
   194                                  
   195                                  Toggle_Statusbar:
   196 00000261 4154                         push       r12
   197 00000263 55                           push       rbp
   198 00000264 4889E5                       mov        rbp, rsp
   199 00000267 4883E4F0                     and        rsp, -16
   200                                  
   201 0000026B 4989F4                       mov        r12, rsi
   202 0000026E 488B3C25[38000000]           mov        rdi, qword [tog_stat.handle]
   203 00000276 E8(00000000)                 call       gtk_check_menu_item_get_active
   204 0000027B 4C89E7                       mov        rdi, r12
   205                                  
   206 0000027E 4885C0                       test       rax, rax
   207 00000281 7407                         jz         .hide
   208                                  .show:
   209 00000283 E8(00000000)                 call       gtk_widget_show
   210 00000288 EB05                         jmp        .done
   211                                  .hide:
   212 0000028A E8(00000000)                 call       gtk_widget_hide
   213                                  .done:
   214 0000028F C9                           leave
   215 00000290 415C                         pop        r12
   216 00000292 C3                           ret
